target datalayout = "e-m:e-p270:32:32-p271:32:32-p272:64:64-i64:64-i128:128-f80:128-n8:16:32:64-S128"
target triple = "x86_64-pc-linux-gnu"

%struct.z_stream_s = type { ptr, i32, i64, ptr, i32, i64, ptr, ptr, ptr, ptr, ptr, i32, i64, i64 }
%struct.wtap_writer = type { i32, i64, i32, i32, ptr, ptr, ptr, i32, i32, i32, ptr, %struct.z_stream_s }

; Function Attrs: null_pointer_is_valid sspstrong uwtable
define hidden i32 @gzwfile_close(ptr noundef %0) #0 {
  %2 = alloca ptr, align 8
  %3 = alloca i32, align 4
  store ptr %0, ptr %2, align 8
  call void @llvm.lifetime.start.p0(i64 4, ptr %3) #14
  store i32 0, ptr %3, align 4
  %4 = load ptr, ptr %2, align 8
  %5 = call i32 @gz_comp(ptr noundef %4, i32 noundef 4)
  %6 = icmp eq i32 %5, -1
  br i1 %6, label %7, label %11

7:                                                ; preds = %1
  %8 = load ptr, ptr %2, align 8
  %9 = getelementptr inbounds nuw %struct.wtap_writer, ptr %8, i32 0, i32 9
  %10 = load i32, ptr %9, align 8
  store i32 %10, ptr %3, align 4
  br label %11

11:                                               ; preds = %7, %1
  %12 = load ptr, ptr %2, align 8
  %13 = getelementptr inbounds nuw %struct.wtap_writer, ptr %12, i32 0, i32 11
  %14 = call i32 @deflateEnd(ptr noundef %13)
  %15 = load ptr, ptr %2, align 8
  %16 = getelementptr inbounds nuw %struct.wtap_writer, ptr %15, i32 0, i32 5
  %17 = load ptr, ptr %16, align 8
  call void @g_free(ptr noundef %17)
  %18 = load ptr, ptr %2, align 8
  %19 = getelementptr inbounds nuw %struct.wtap_writer, ptr %18, i32 0, i32 4
  %20 = load ptr, ptr %19, align 8
  call void @g_free(ptr noundef %20)
  %21 = load ptr, ptr %2, align 8
  %22 = getelementptr inbounds nuw %struct.wtap_writer, ptr %21, i32 0, i32 9
  store i32 0, ptr %22, align 8
  %23 = load ptr, ptr %2, align 8
  %24 = getelementptr inbounds nuw %struct.wtap_writer, ptr %23, i32 0, i32 0
  %25 = load i32, ptr %24, align 8
  %26 = call i32 @close(i32 noundef %25)
  %27 = icmp eq i32 %26, -1
  br i1 %27, label %28, label %34

28:                                               ; preds = %11
  %29 = load i32, ptr %3, align 4
  %30 = icmp eq i32 %29, 0
  br i1 %30, label %31, label %34

31:                                               ; preds = %28
  %32 = call ptr @__errno_location() #17
  %33 = load i32, ptr %32, align 4
  store i32 %33, ptr %3, align 4
  br label %34

34:                                               ; preds = %31, %28, %11
  %35 = load ptr, ptr %2, align 8
  call void @g_free(ptr noundef %35)
  %36 = load i32, ptr %3, align 4
  call void @llvm.lifetime.end.p0(i64 4, ptr %3) #14
  ret i32 %36
}