; Function Attrs: null_pointer_is_valid sspstrong uwtable
define hidden i32 @gzwfile_close(ptr noundef %0) local_unnamed_addr #0 {
  %2 = tail call fastcc i32 @gz_comp(ptr noundef %0, i32 noundef 4)
  %3 = icmp eq i32 %2, -1
  br i1 %3, label %4, label %7

4:                                                ; preds = %1
  %5 = getelementptr inbounds nuw i8, ptr %0, i64 56
  %6 = load i32, ptr %5, align 8
  br label %7

7:                                                ; preds = %4, %1
  %.0 = phi i32 [ %6, %4 ], [ 0, %1 ]
  %8 = getelementptr inbounds nuw i8, ptr %0, i64 72
  %9 = tail call i32 @deflateEnd(ptr noundef nonnull %8)
  %10 = getelementptr inbounds nuw i8, ptr %0, i64 32
  %11 = load ptr, ptr %10, align 8
  tail call void @g_free(ptr noundef %11)
  %12 = getelementptr inbounds nuw i8, ptr %0, i64 24
  %13 = load ptr, ptr %12, align 8
  tail call void @g_free(ptr noundef %13)
  %14 = getelementptr inbounds nuw i8, ptr %0, i64 56
  store i32 0, ptr %14, align 8
  %15 = load i32, ptr %0, align 8
  %16 = tail call i32 @close(i32 noundef %15)
  %17 = icmp eq i32 %16, -1
  %18 = icmp eq i32 %.0, 0
  %or.cond = select i1 %17, i1 %18, i1 false
  br i1 %or.cond, label %19, label %22

19:                                               ; preds = %7
  %20 = tail call ptr @__errno_location() #23
  %21 = load i32, ptr %20, align 4
  br label %22

22:                                               ; preds = %19, %7
  %.1 = phi i32 [ %21, %19 ], [ %.0, %7 ]
  tail call void @g_free(ptr noundef %0)
  ret i32 %.1
}